; Function Attrs: nounwind uwtable
define dso_local ptr @PyObject_VectorcallMethod(ptr noundef %0, ptr noundef %1, i64 noundef %2, ptr noundef %3) local_unnamed_addr #0 {
  %5 = alloca ptr, align 8
  %6 = tail call align 8 ptr @llvm.threadlocal.address.p0(ptr align 8 @_Py_tss_tstate)
  %7 = load ptr, ptr %6, align 8, !tbaa !25
  call void @llvm.lifetime.start.p0(i64 8, ptr nonnull %5) #10
  store ptr null, ptr %5, align 8, !tbaa !23
  %8 = load ptr, ptr %1, align 8, !tbaa !23
  %9 = call i32 @_PyObject_GetMethod(ptr noundef %8, ptr noundef %0, ptr noundef nonnull %5) #10
  %10 = load ptr, ptr %5, align 8, !tbaa !23
  %11 = icmp eq ptr %10, null
  br i1 %11, label %Py_DECREF.exit, label %12

12:                                               ; preds = %4
  %.not = icmp eq i32 %9, 0
  %13 = and i64 %2, 9223372036854775807
  %14 = add i64 %2, -1
  %.012 = select i1 %.not, i64 %14, i64 %13
  %.011.idx = select i1 %.not, i64 8, i64 0
  %.011 = getelementptr i8, ptr %1, i64 %.011.idx
  %15 = getelementptr i8, ptr %10, i64 8
  %.val.i.i = load ptr, ptr %15, align 8, !tbaa !20
  %16 = getelementptr i8, ptr %.val.i.i, i64 168
  %.val6.i.i = load i64, ptr %16, align 8, !tbaa !34
  %17 = and i64 %.val6.i.i, 2048
  %.not.i.i = icmp eq i64 %17, 0
  br i1 %.not.i.i, label %_PyVectorcall_FunctionInline.exit.thread.i, label %_PyVectorcall_FunctionInline.exit.i

_PyVectorcall_FunctionInline.exit.i:              ; preds = %12
  %18 = getelementptr inbounds nuw i8, ptr %.val.i.i, i64 56
  %19 = load i64, ptr %18, align 8, !tbaa !35
  %20 = getelementptr i8, ptr %10, i64 %19
  %.0.copyload.i.i = load ptr, ptr %20, align 1
  %21 = icmp eq ptr %.0.copyload.i.i, null
  br i1 %21, label %_PyVectorcall_FunctionInline.exit.thread.i, label %24

_PyVectorcall_FunctionInline.exit.thread.i:       ; preds = %_PyVectorcall_FunctionInline.exit.i, %12
  %22 = and i64 %.012, 9223372036854775807
  %23 = call ptr @_PyObject_MakeTpCall(ptr noundef %7, ptr noundef nonnull %10, ptr noundef %.011, i64 noundef %22, ptr noundef %3)
  br label %_PyObject_VectorcallTstate.exit

24:                                               ; preds = %_PyVectorcall_FunctionInline.exit.i
  %25 = call ptr %.0.copyload.i.i(ptr noundef nonnull %10, ptr noundef %.011, i64 noundef %.012, ptr noundef %3) #10
  %26 = icmp eq ptr %25, null
  %27 = getelementptr i8, ptr %7, i64 112
  %.val.i = load ptr, ptr %27, align 8, !tbaa !4
  %28 = icmp eq ptr %.val.i, null
  br i1 %26, label %29, label %34

29:                                               ; preds = %24
  br i1 %28, label %31, label %_PyErr_Occurred.exit.i

_PyErr_Occurred.exit.i:                           ; preds = %29
  %30 = getelementptr i8, ptr %.val.i, i64 8
  %.val.i.i16 = load ptr, ptr %30, align 8, !tbaa !20
  %.not19.i = icmp eq ptr %.val.i.i16, null
  br i1 %.not19.i, label %31, label %_PyObject_VectorcallTstate.exit

31:                                               ; preds = %29, %_PyErr_Occurred.exit.i
  %32 = load ptr, ptr @PyExc_SystemError, align 8, !tbaa !23
  %33 = call ptr (ptr, ptr, ptr, ...) @_PyErr_Format(ptr noundef nonnull %7, ptr noundef %32, ptr noundef nonnull @.str, ptr noundef nonnull %10) #10
  br label %_PyObject_VectorcallTstate.exit

34:                                               ; preds = %24
  br i1 %28, label %_PyObject_VectorcallTstate.exit, label %_PyErr_Occurred.exit24.i

_PyErr_Occurred.exit24.i:                         ; preds = %34
  %35 = getelementptr i8, ptr %.val.i, i64 8
  %.val.i22.i = load ptr, ptr %35, align 8, !tbaa !20
  %.not.i13 = icmp eq ptr %.val.i22.i, null
  br i1 %.not.i13, label %_PyObject_VectorcallTstate.exit, label %36

36:                                               ; preds = %_PyErr_Occurred.exit24.i
  %37 = load i32, ptr %25, align 8, !tbaa !24
  %.not.i.i14 = icmp sgt i32 %37, -1
  br i1 %.not.i.i14, label %38, label %42

38:                                               ; preds = %36
  %39 = add nsw i32 %37, -1
  store i32 %39, ptr %25, align 8, !tbaa !24
  %40 = icmp eq i32 %39, 0
  br i1 %40, label %41, label %42

41:                                               ; preds = %38
  call void @_Py_Dealloc(ptr noundef nonnull %25) #10
  br label %42

42:                                               ; preds = %36, %38, %41
  %43 = load ptr, ptr @PyExc_SystemError, align 8, !tbaa !23
  %44 = call ptr (ptr, ptr, ptr, ...) @_PyErr_FormatFromCauseTstate(ptr noundef nonnull %7, ptr noundef %43, ptr noundef nonnull @.str.2, ptr noundef nonnull %10) #10
  br label %_PyObject_VectorcallTstate.exit

_PyObject_VectorcallTstate.exit:                  ; preds = %42, %_PyErr_Occurred.exit24.i, %34, %31, %_PyErr_Occurred.exit.i, %_PyVectorcall_FunctionInline.exit.thread.i
  %.0.i = phi ptr [ %23, %_PyVectorcall_FunctionInline.exit.thread.i ], [ null, %31 ], [ null, %42 ], [ %25, %_PyErr_Occurred.exit24.i ], [ null, %_PyErr_Occurred.exit.i ], [ %25, %34 ]
  %45 = load ptr, ptr %5, align 8, !tbaa !23
  %46 = load i32, ptr %45, align 8, !tbaa !24
  %.not.i = icmp sgt i32 %46, -1
  br i1 %.not.i, label %47, label %Py_DECREF.exit

47:                                               ; preds = %_PyObject_VectorcallTstate.exit
  %48 = add nsw i32 %46, -1
  store i32 %48, ptr %45, align 8, !tbaa !24
  %49 = icmp eq i32 %48, 0
  br i1 %49, label %50, label %Py_DECREF.exit

50:                                               ; preds = %47
  call void @_Py_Dealloc(ptr noundef nonnull %45) #10
  br label %Py_DECREF.exit

Py_DECREF.exit:                                   ; preds = %50, %47, %_PyObject_VectorcallTstate.exit, %4
  %.0 = phi ptr [ null, %4 ], [ %.0.i, %_PyObject_VectorcallTstate.exit ], [ %.0.i, %47 ], [ %.0.i, %50 ]
  call void @llvm.lifetime.end.p0(i64 8, ptr nonnull %5) #10
  ret ptr %.0
}